; Function Attrs: nounwind uwtable
define hidden zeroext i1 @SDL_GetPathInfo_REAL(ptr noundef %0, ptr noundef %1) local_unnamed_addr #0 {
  %3 = alloca %struct.SDL_PathInfo, align 8
  call void @llvm.lifetime.start.p0(i64 40, ptr nonnull %3) #8
  %.not = icmp eq ptr %1, null
  %spec.store.select = select i1 %.not, ptr %3, ptr %1
  call void @llvm.memset.p0.i64(ptr noundef nonnull align 8 dereferenceable(40) %spec.store.select, i8 0, i64 40, i1 false)
  %.not7 = icmp eq ptr %0, null
  br i1 %.not7, label %4, label %6

4:                                                ; preds = %2
  %5 = tail call zeroext i1 (ptr, ...) @SDL_SetError_REAL(ptr noundef nonnull @.str, ptr noundef nonnull @.str.1) #8
  br label %8

6:                                                ; preds = %2
  %7 = call zeroext i1 @SDL_SYS_GetPathInfo(ptr noundef nonnull %0, ptr noundef nonnull %spec.store.select) #8
  br label %8

8:                                                ; preds = %6, %4
  %.0 = phi i1 [ %7, %6 ], [ %5, %4 ]
  call void @llvm.lifetime.end.p0(i64 40, ptr nonnull %3) #8
  ret i1 %.0
}